; Function Attrs: mustprogress nounwind uwtable
define hidden void @_ZNK15orL_mem_immNode4emitEP17C2_MacroAssemblerP13PhaseRegAlloc(ptr noundef nonnull align 8 dereferenceable(104) %0, ptr noundef %1, ptr noundef %2) unnamed_addr #3 align 2 {
  %4 = alloca %class.Address, align 8
  %5 = getelementptr inbounds i8, ptr %0, i64 80
  %6 = load ptr, ptr %5, align 8
  %7 = load ptr, ptr %6, align 8
  %8 = getelementptr inbounds i8, ptr %7, i64 8
  %9 = load ptr, ptr %8, align 8
  %10 = tail call noundef i32 %9(ptr noundef nonnull align 8 dereferenceable(8) %6) #23
  %11 = load ptr, ptr %5, align 8
  %12 = load ptr, ptr %11, align 8
  %13 = getelementptr inbounds i8, ptr %12, i64 104
  %14 = load ptr, ptr %13, align 8
  %15 = tail call noundef i32 %14(ptr noundef nonnull align 8 dereferenceable(8) %11, ptr noundef %2, ptr noundef nonnull %0, i32 noundef 2) #23
  %16 = load ptr, ptr %5, align 8
  %17 = load ptr, ptr %16, align 8
  %18 = getelementptr inbounds i8, ptr %17, i64 112
  %19 = load ptr, ptr %18, align 8
  %20 = tail call noundef i32 %19(ptr noundef nonnull align 8 dereferenceable(8) %16, ptr noundef %2, ptr noundef nonnull %0, i32 noundef 2) #23
  %21 = load ptr, ptr %5, align 8
  %22 = load ptr, ptr %21, align 8
  %23 = getelementptr inbounds i8, ptr %22, i64 120
  %24 = load ptr, ptr %23, align 8
  %25 = tail call noundef i32 %24(ptr noundef nonnull align 8 dereferenceable(8) %21) #23
  %26 = load ptr, ptr %5, align 8
  %27 = load ptr, ptr %26, align 8
  %28 = getelementptr inbounds i8, ptr %27, i64 128
  %29 = load ptr, ptr %28, align 8
  %30 = tail call noundef i32 %29(ptr noundef nonnull align 8 dereferenceable(8) %26, ptr noundef %2, ptr noundef nonnull %0, i32 noundef 2) #23
  %31 = load ptr, ptr %5, align 8
  %32 = load ptr, ptr %31, align 8
  %33 = getelementptr inbounds i8, ptr %32, i64 136
  %34 = load ptr, ptr %33, align 8
  %35 = tail call noundef i32 %34(ptr noundef nonnull align 8 dereferenceable(8) %31) #23
  call void @_ZN7Address8make_rawEiiiiN9relocInfo9relocTypeE(ptr dead_on_unwind nonnull writable sret(%class.Address) align 8 %4, i32 noundef %15, i32 noundef %20, i32 noundef %25, i32 noundef %30, i32 noundef %35) #23
  %36 = getelementptr inbounds i8, ptr %0, i64 88
  %37 = load ptr, ptr %36, align 8
  %38 = load ptr, ptr %37, align 8
  %39 = getelementptr inbounds i8, ptr %38, i64 80
  %40 = load ptr, ptr %39, align 8
  %41 = call noundef i64 %40(ptr noundef nonnull align 8 dereferenceable(8) %37) #23
  %42 = trunc i64 %41 to i32
  call void @_ZN9Assembler3orqE7Addressi(ptr noundef nonnull align 8 dereferenceable(40) %1, ptr noundef nonnull %4, i32 noundef %42) #23
  ret void
}